#include <math.h>
#include <stdio.h>
#include <stdlib.h>
#include <string.h>
#include <iostream>
using namespace std;

/*??
?1???? m ??? n ?????????????????????????1??
??????????? 1 ?????1????????????? n ???
???? k ( k < n )?????????k???????????1???
? 2 ?????????????? n ??????? k ????????? k ????
??????1??????????????????????? n ??????? k ??
????? k ??????????1????????????????????1????
?????? n ? k??????? m
????
??????n ?????? k??? k ?? n?n ? k ????????
????
????????*/
int main() 
{
	int n,k;cin>>n>>k;
	int m=n-1;
  for(int e=n+k; ;e+=n)
	{    int e1=e,i;
	    for(i=1; i<=m; ++i )
        {
		     if(e1%m!=0)break;
		     e1=e1/(n-1)*n+k;
			 
	    }
		if(i>=n){cout<<e1;break;}
	}

	return 0;
}
